target datalayout = "e-m:e-p270:32:32-p271:32:32-p272:64:64-i64:64-i128:128-f80:128-n8:16:32:64-S128"
target triple = "x86_64-pc-linux-gnu"

%struct._address = type { i32, i32, ptr, ptr }
%struct.profile = type { i16, i8, %struct._address, i32, i32, ptr, ptr, ptr, ptr, ptr, ptr, ptr, i32, ptr, ptr, ptr }
%struct.device_profile_uat_assoc = type { ptr, i32, i32, i32 }

@current_convo_generation = hidden global i32 0, align 4
@epl_profiles_by_device = internal global ptr null, align 8
@device_profile_list_uats = internal global ptr null, align 8
@ndevice_profile_uat = internal global i32 0, align 4
@pdo_mapping_scope = internal global ptr null, align 8
@.str.1117 = private unnamed_addr constant [12 x i8] c"Loading %s\0A\00", align 1

; Function Attrs: nounwind uwtable
define internal void @device_profile_parse_uat() #0 {
  %1 = alloca i32, align 4
  %2 = alloca ptr, align 8
  %3 = alloca ptr, align 8
  %4 = alloca ptr, align 8
  %5 = alloca ptr, align 8
  store ptr null, ptr %2, align 8
  %6 = load ptr, ptr @epl_profiles_by_device, align 8
  call void @wmem_map_foreach(ptr noundef %6, ptr noundef @drop_profiles, ptr noundef null)
  %7 = load ptr, ptr @pdo_mapping_scope, align 8
  %8 = icmp ne ptr %7, null
  br i1 %8, label %9, label %13

9:                                                ; preds = %0
  %10 = load ptr, ptr @pdo_mapping_scope, align 8
  call void @wmem_free_all(ptr noundef %10)
  %11 = load i32, ptr @current_convo_generation, align 4
  %12 = add i32 %11, 1
  store i32 %12, ptr @current_convo_generation, align 4
  br label %13

13:                                               ; preds = %9, %0
  store i32 0, ptr %1, align 4
  br label %14

14:                                               ; preds = %111, %13
  %15 = load i32, ptr %1, align 4
  %16 = load i32, ptr @ndevice_profile_uat, align 4
  %17 = icmp ult i32 %15, %16
  br i1 %17, label %18, label %114

18:                                               ; preds = %14
  %19 = load ptr, ptr @device_profile_list_uats, align 8
  %20 = load i32, ptr %1, align 4
  %21 = zext i32 %20 to i64
  %22 = getelementptr %struct.device_profile_uat_assoc, ptr %19, i64 %21
  store ptr %22, ptr %3, align 8
  %23 = load ptr, ptr @epl_profiles_by_device, align 8
  %24 = load ptr, ptr %3, align 8
  %25 = getelementptr inbounds %struct.device_profile_uat_assoc, ptr %24, i32 0, i32 1
  %26 = load i32, ptr %25, align 8
  %27 = zext i32 %26 to i64
  %28 = inttoptr i64 %27 to ptr
  %29 = call ptr @wmem_map_lookup(ptr noundef %23, ptr noundef %28)
  store ptr %29, ptr %2, align 8
  %30 = load ptr, ptr %2, align 8
  %31 = icmp ne ptr %30, null
  br i1 %31, label %32, label %40

32:                                               ; preds = %18
  %33 = load ptr, ptr %2, align 8
  %34 = getelementptr inbounds %struct.profile, ptr %33, i32 0, i32 6
  %35 = load ptr, ptr %34, align 8
  %36 = call noalias ptr @wmem_alloc0(ptr noundef %35, i64 noundef 128)
  store ptr %36, ptr %4, align 8
  %37 = load ptr, ptr %4, align 8
  %38 = load ptr, ptr %2, align 8
  call void @llvm.memcpy.p0.p0.i64(ptr align 8 %37, ptr align 8 %38, i64 128, i1 false)
  %39 = load ptr, ptr %4, align 8
  store ptr %39, ptr %2, align 8
  br label %40

40:                                               ; preds = %32, %18
  %41 = load ptr, ptr %2, align 8
  %42 = icmp ne ptr %41, null
  br i1 %42, label %49, label %43

43:                                               ; preds = %40
  %44 = call ptr @wmem_epan_scope()
  %45 = load ptr, ptr %3, align 8
  %46 = getelementptr inbounds %struct.device_profile_uat_assoc, ptr %45, i32 0, i32 0
  %47 = load ptr, ptr %46, align 8
  %48 = call ptr @profile_load(ptr noundef %44, ptr noundef %47)
  store ptr %48, ptr %2, align 8
  br label %49

49:                                               ; preds = %43, %40
  %50 = load ptr, ptr %2, align 8
  %51 = icmp ne ptr %50, null
  br i1 %51, label %53, label %52

52:                                               ; preds = %49
  br label %111

53:                                               ; preds = %49
  %54 = load ptr, ptr @epl_profiles_by_device, align 8
  %55 = load ptr, ptr %2, align 8
  %56 = getelementptr inbounds %struct.profile, ptr %55, i32 0, i32 0
  %57 = load i16, ptr %56, align 8
  %58 = zext i16 %57 to i64
  %59 = inttoptr i64 %58 to ptr
  %60 = call ptr @wmem_map_lookup(ptr noundef %54, ptr noundef %59)
  store ptr %60, ptr %5, align 8
  %61 = icmp ne ptr %60, null
  br i1 %61, label %62, label %73

62:                                               ; preds = %53
  %63 = load ptr, ptr @epl_profiles_by_device, align 8
  %64 = load ptr, ptr %5, align 8
  %65 = getelementptr inbounds %struct.profile, ptr %64, i32 0, i32 0
  %66 = load i16, ptr %65, align 8
  %67 = zext i16 %66 to i64
  %68 = inttoptr i64 %67 to ptr
  %69 = call ptr @wmem_map_remove(ptr noundef %63, ptr noundef %68)
  %70 = load ptr, ptr %5, align 8
  %71 = load ptr, ptr %2, align 8
  %72 = getelementptr inbounds %struct.profile, ptr %71, i32 0, i32 15
  store ptr %70, ptr %72, align 8
  br label %73

73:                                               ; preds = %62, %53
  %74 = load ptr, ptr %3, align 8
  %75 = getelementptr inbounds %struct.device_profile_uat_assoc, ptr %74, i32 0, i32 1
  %76 = load i32, ptr %75, align 8
  %77 = trunc i32 %76 to i16
  %78 = load ptr, ptr %2, align 8
  %79 = getelementptr inbounds %struct.profile, ptr %78, i32 0, i32 0
  store i16 %77, ptr %79, align 8
  %80 = load ptr, ptr %2, align 8
  %81 = getelementptr inbounds %struct.profile, ptr %80, i32 0, i32 0
  %82 = load i16, ptr %81, align 8
  %83 = zext i16 %82 to i64
  %84 = inttoptr i64 %83 to ptr
  %85 = load ptr, ptr %2, align 8
  %86 = getelementptr inbounds %struct.profile, ptr %85, i32 0, i32 11
  store ptr %84, ptr %86, align 8
  %87 = load ptr, ptr %3, align 8
  %88 = getelementptr inbounds %struct.device_profile_uat_assoc, ptr %87, i32 0, i32 2
  %89 = load i32, ptr %88, align 4
  %90 = load ptr, ptr %2, align 8
  %91 = getelementptr inbounds %struct.profile, ptr %90, i32 0, i32 3
  store i32 %89, ptr %91, align 8
  %92 = load ptr, ptr %3, align 8
  %93 = getelementptr inbounds %struct.device_profile_uat_assoc, ptr %92, i32 0, i32 3
  %94 = load i32, ptr %93, align 8
  %95 = load ptr, ptr %2, align 8
  %96 = getelementptr inbounds %struct.profile, ptr %95, i32 0, i32 4
  store i32 %94, ptr %96, align 4
  %97 = load ptr, ptr @epl_profiles_by_device, align 8
  %98 = load ptr, ptr %2, align 8
  %99 = getelementptr inbounds %struct.profile, ptr %98, i32 0, i32 0
  %100 = load i16, ptr %99, align 8
  %101 = zext i16 %100 to i64
  %102 = inttoptr i64 %101 to ptr
  %103 = load ptr, ptr %2, align 8
  %104 = call ptr @wmem_map_insert(ptr noundef %97, ptr noundef %102, ptr noundef %103)
  %105 = load ptr, ptr @epl_profiles_by_device, align 8
  %106 = load ptr, ptr %2, align 8
  %107 = getelementptr inbounds %struct.profile, ptr %106, i32 0, i32 8
  store ptr %105, ptr %107, align 8
  %108 = load ptr, ptr %2, align 8
  %109 = getelementptr inbounds %struct.profile, ptr %108, i32 0, i32 10
  %110 = load ptr, ptr %109, align 8
  call void (ptr, i32, ptr, ...) @ws_log(ptr noundef null, i32 noundef 3, ptr noundef @.str.1117, ptr noundef %110)
  br label %111

111:                                              ; preds = %73, %52
  %112 = load i32, ptr %1, align 4
  %113 = add i32 %112, 1
  store i32 %113, ptr %1, align 4
  br label %14, !llvm.loop !8

114:                                              ; preds = %14
  ret void
}