; Function Attrs: nounwind uwtable
define internal void @device_profile_parse_uat() #2 {
  %1 = load ptr, ptr @epl_profiles_by_device, align 8
  tail call void @wmem_map_foreach(ptr noundef %1, ptr noundef nonnull @drop_profiles, ptr noundef null) #18
  %2 = load ptr, ptr @pdo_mapping_scope, align 8
  %.not = icmp eq ptr %2, null
  br i1 %.not, label %6, label %3

3:                                                ; preds = %0
  tail call void @wmem_free_all(ptr noundef nonnull %2) #18
  %4 = load i32, ptr @current_convo_generation, align 4
  %5 = add i32 %4, 1
  store i32 %5, ptr @current_convo_generation, align 4
  br label %6

6:                                                ; preds = %3, %0
  %7 = load i32, ptr @ndevice_profile_uat, align 4
  %.not44 = icmp eq i32 %7, 0
  br i1 %.not44, label %._crit_edge, label %.lr.ph

.lr.ph:                                           ; preds = %6, %54
  %indvars.iv = phi i64 [ %indvars.iv.next, %54 ], [ 0, %6 ]
  %8 = load ptr, ptr @device_profile_list_uats, align 8
  %9 = getelementptr %struct.device_profile_uat_assoc, ptr %8, i64 %indvars.iv
  %10 = load ptr, ptr @epl_profiles_by_device, align 8
  %11 = getelementptr inbounds nuw i8, ptr %9, i64 8
  %12 = load i32, ptr %11, align 8
  %13 = zext i32 %12 to i64
  %14 = inttoptr i64 %13 to ptr
  %15 = tail call ptr @wmem_map_lookup(ptr noundef %10, ptr noundef %14) #18
  %.not32 = icmp eq ptr %15, null
  br i1 %.not32, label %19, label %.thread38

.thread38:                                        ; preds = %.lr.ph
  %16 = getelementptr inbounds nuw i8, ptr %15, i64 48
  %17 = load ptr, ptr %16, align 8
  %18 = tail call noalias ptr @wmem_alloc0(ptr noundef %17, i64 noundef 128) #18
  tail call void @llvm.memcpy.p0.p0.i64(ptr noundef nonnull align 8 dereferenceable(128) %18, ptr noundef nonnull align 8 dereferenceable(128) %15, i64 128, i1 false)
  br label %23

19:                                               ; preds = %.lr.ph
  %20 = tail call ptr @wmem_epan_scope() #18
  %21 = load ptr, ptr %9, align 8
  %22 = tail call fastcc ptr @profile_load(ptr noundef %20, ptr noundef %21)
  %.not34 = icmp eq ptr %22, null
  br i1 %.not34, label %54, label %23

23:                                               ; preds = %.thread38, %19
  %.141 = phi ptr [ %18, %.thread38 ], [ %22, %19 ]
  %24 = load ptr, ptr @epl_profiles_by_device, align 8
  %25 = load i16, ptr %.141, align 8
  %26 = zext i16 %25 to i64
  %27 = inttoptr i64 %26 to ptr
  %28 = tail call ptr @wmem_map_lookup(ptr noundef %24, ptr noundef %27) #18
  %.not35 = icmp eq ptr %28, null
  br i1 %.not35, label %36, label %29

29:                                               ; preds = %23
  %30 = load ptr, ptr @epl_profiles_by_device, align 8
  %31 = load i16, ptr %28, align 8
  %32 = zext i16 %31 to i64
  %33 = inttoptr i64 %32 to ptr
  %34 = tail call ptr @wmem_map_remove(ptr noundef %30, ptr noundef %33) #18
  %35 = getelementptr inbounds nuw i8, ptr %.141, i64 120
  store ptr %28, ptr %35, align 8
  br label %36

36:                                               ; preds = %29, %23
  %37 = load i32, ptr %11, align 8
  %38 = trunc i32 %37 to i16
  store i16 %38, ptr %.141, align 8
  %.mask = and i32 %37, 65535
  %39 = zext nneg i32 %.mask to i64
  %40 = inttoptr i64 %39 to ptr
  %41 = getelementptr inbounds nuw i8, ptr %.141, i64 88
  store ptr %40, ptr %41, align 8
  %42 = getelementptr inbounds nuw i8, ptr %9, i64 12
  %43 = load i32, ptr %42, align 4
  %44 = getelementptr inbounds nuw i8, ptr %.141, i64 32
  store i32 %43, ptr %44, align 8
  %45 = getelementptr inbounds nuw i8, ptr %9, i64 16
  %46 = load i32, ptr %45, align 8
  %47 = getelementptr inbounds nuw i8, ptr %.141, i64 36
  store i32 %46, ptr %47, align 4
  %48 = load ptr, ptr @epl_profiles_by_device, align 8
  %49 = tail call ptr @wmem_map_insert(ptr noundef %48, ptr noundef %40, ptr noundef nonnull %.141) #18
  %50 = load ptr, ptr @epl_profiles_by_device, align 8
  %51 = getelementptr inbounds nuw i8, ptr %.141, i64 64
  store ptr %50, ptr %51, align 8
  %52 = getelementptr inbounds nuw i8, ptr %.141, i64 80
  %53 = load ptr, ptr %52, align 8
  tail call void (ptr, i32, ptr, ...) @ws_log(ptr noundef null, i32 noundef 3, ptr noundef nonnull @.str.1117, ptr noundef %53) #18
  br label %54

54:                                               ; preds = %19, %36
  %indvars.iv.next = add nuw nsw i64 %indvars.iv, 1
  %55 = load i32, ptr @ndevice_profile_uat, align 4
  %56 = zext i32 %55 to i64
  %57 = icmp samesign ult i64 %indvars.iv.next, %56
  br i1 %57, label %.lr.ph, label %._crit_edge, !llvm.loop !10

._crit_edge:                                      ; preds = %54, %6
  ret void
}